target datalayout = "e-m:e-p270:32:32-p271:32:32-p272:64:64-i64:64-i128:128-f80:128-n8:16:32:64-S128"
target triple = "x86_64-pc-linux-gnu"

%struct.ObjectAddress = type { i32, i32, i32 }
%struct.IntoClause = type { i32, ptr, ptr, ptr, ptr, i32, ptr, ptr, i8 }
%struct.Node = type { i32 }
%struct.CreateStmt = type { i32, ptr, ptr, ptr, ptr, ptr, ptr, ptr, ptr, ptr, i32, ptr, ptr, i8 }

@.str.7 = private unnamed_addr constant [6 x i8] c"toast\00", align 1
@__const.create_ctas_internal.validnsps = private unnamed_addr constant [2 x ptr] [ptr @.str.7, ptr null], align 16

; Function Attrs: inlinehint nounwind uwtable
define internal ptr @newNode(i64 noundef %0, i32 noundef %1) #3 {
  %3 = alloca i64, align 8
  %4 = alloca i32, align 4
  %5 = alloca ptr, align 8
  store i64 %0, ptr %3, align 8
  store i32 %1, ptr %4, align 4
  call void @llvm.lifetime.start.p0(i64 8, ptr %5) #7
  %6 = load i64, ptr %3, align 8
  %7 = call ptr @palloc0(i64 noundef %6)
  store ptr %7, ptr %5, align 8
  %8 = load i32, ptr %4, align 4
  %9 = load ptr, ptr %5, align 8
  %10 = getelementptr inbounds nuw %struct.Node, ptr %9, i32 0, i32 0
  store i32 %8, ptr %10, align 4
  %11 = load ptr, ptr %5, align 8
  call void @llvm.lifetime.end.p0(i64 8, ptr %5) #7
  ret ptr %11
}

; Function Attrs: nounwind uwtable
define internal { i64, i32 } @create_ctas_internal(ptr noundef %0, ptr noundef %1) #0 {
  %3 = alloca %struct.ObjectAddress, align 4
  %4 = alloca ptr, align 8
  %5 = alloca ptr, align 8
  %6 = alloca ptr, align 8
  %7 = alloca i8, align 1
  %8 = alloca i8, align 1
  %9 = alloca i64, align 8
  %10 = alloca [2 x ptr], align 16
  %11 = alloca %struct.ObjectAddress, align 4
  %12 = alloca { i64, i32 }, align 8
  %13 = alloca ptr, align 8
  %14 = alloca { i64, i32 }, align 8
  store ptr %0, ptr %4, align 8
  store ptr %1, ptr %5, align 8
  call void @llvm.lifetime.start.p0(i64 8, ptr %6) #7
  %15 = call ptr @newNode(i64 noundef 112, i32 noundef 159)
  store ptr %15, ptr %6, align 8
  call void @llvm.lifetime.start.p0(i64 1, ptr %7) #7
  call void @llvm.lifetime.start.p0(i64 1, ptr %8) #7
  call void @llvm.lifetime.start.p0(i64 8, ptr %9) #7
  call void @llvm.lifetime.start.p0(i64 16, ptr %10) #7
  call void @llvm.memcpy.p0.p0.i64(ptr align 16 %10, ptr align 16 @__const.create_ctas_internal.validnsps, i64 16, i1 false)
  %16 = load ptr, ptr %5, align 8
  %17 = getelementptr inbounds nuw %struct.IntoClause, ptr %16, i32 0, i32 7
  %18 = load ptr, ptr %17, align 8
  %19 = icmp ne ptr %18, null
  %20 = zext i1 %19 to i8
  store i8 %20, ptr %7, align 1
  %21 = load i8, ptr %7, align 1, !range !4, !noundef !5
  %22 = trunc i8 %21 to i1
  %23 = select i1 %22, i32 109, i32 114
  %24 = trunc i32 %23 to i8
  store i8 %24, ptr %8, align 1
  %25 = load ptr, ptr %5, align 8
  %26 = getelementptr inbounds nuw %struct.IntoClause, ptr %25, i32 0, i32 1
  %27 = load ptr, ptr %26, align 8
  %28 = load ptr, ptr %6, align 8
  %29 = getelementptr inbounds nuw %struct.CreateStmt, ptr %28, i32 0, i32 1
  store ptr %27, ptr %29, align 8
  %30 = load ptr, ptr %4, align 8
  %31 = load ptr, ptr %6, align 8
  %32 = getelementptr inbounds nuw %struct.CreateStmt, ptr %31, i32 0, i32 2
  store ptr %30, ptr %32, align 8
  %33 = load ptr, ptr %6, align 8
  %34 = getelementptr inbounds nuw %struct.CreateStmt, ptr %33, i32 0, i32 3
  store ptr null, ptr %34, align 8
  %35 = load ptr, ptr %6, align 8
  %36 = getelementptr inbounds nuw %struct.CreateStmt, ptr %35, i32 0, i32 6
  store ptr null, ptr %36, align 8
  %37 = load ptr, ptr %6, align 8
  %38 = getelementptr inbounds nuw %struct.CreateStmt, ptr %37, i32 0, i32 7
  store ptr null, ptr %38, align 8
  %39 = load ptr, ptr %5, align 8
  %40 = getelementptr inbounds nuw %struct.IntoClause, ptr %39, i32 0, i32 4
  %41 = load ptr, ptr %40, align 8
  %42 = load ptr, ptr %6, align 8
  %43 = getelementptr inbounds nuw %struct.CreateStmt, ptr %42, i32 0, i32 9
  store ptr %41, ptr %43, align 8
  %44 = load ptr, ptr %5, align 8
  %45 = getelementptr inbounds nuw %struct.IntoClause, ptr %44, i32 0, i32 5
  %46 = load i32, ptr %45, align 8
  %47 = load ptr, ptr %6, align 8
  %48 = getelementptr inbounds nuw %struct.CreateStmt, ptr %47, i32 0, i32 10
  store i32 %46, ptr %48, align 8
  %49 = load ptr, ptr %5, align 8
  %50 = getelementptr inbounds nuw %struct.IntoClause, ptr %49, i32 0, i32 6
  %51 = load ptr, ptr %50, align 8
  %52 = load ptr, ptr %6, align 8
  %53 = getelementptr inbounds nuw %struct.CreateStmt, ptr %52, i32 0, i32 11
  store ptr %51, ptr %53, align 8
  %54 = load ptr, ptr %6, align 8
  %55 = getelementptr inbounds nuw %struct.CreateStmt, ptr %54, i32 0, i32 13
  store i8 0, ptr %55, align 8
  %56 = load ptr, ptr %5, align 8
  %57 = getelementptr inbounds nuw %struct.IntoClause, ptr %56, i32 0, i32 3
  %58 = load ptr, ptr %57, align 8
  %59 = load ptr, ptr %6, align 8
  %60 = getelementptr inbounds nuw %struct.CreateStmt, ptr %59, i32 0, i32 12
  store ptr %58, ptr %60, align 8
  call void @llvm.lifetime.start.p0(i64 12, ptr %11) #7
  %61 = load ptr, ptr %6, align 8
  %62 = load i8, ptr %8, align 1
  %63 = call { i64, i32 } @DefineRelation(ptr noundef %61, i8 noundef signext %62, i32 noundef 0, ptr noundef null, ptr noundef null)
  store { i64, i32 } %63, ptr %12, align 8
  call void @llvm.memcpy.p0.p0.i64(ptr align 4 %11, ptr align 8 %12, i64 12, i1 false)
  call void @llvm.memcpy.p0.p0.i64(ptr align 4 %3, ptr align 4 %11, i64 12, i1 false)
  call void @llvm.lifetime.end.p0(i64 12, ptr %11) #7
  call void @CommandCounterIncrement()
  %64 = load ptr, ptr %6, align 8
  %65 = getelementptr inbounds nuw %struct.CreateStmt, ptr %64, i32 0, i32 9
  %66 = load ptr, ptr %65, align 8
  %67 = getelementptr inbounds [2 x ptr], ptr %10, i64 0, i64 0
  %68 = call i64 @transformRelOptions(i64 noundef 0, ptr noundef %66, ptr noundef @.str.7, ptr noundef %67, i1 noundef zeroext true, i1 noundef zeroext false)
  store i64 %68, ptr %9, align 8
  %69 = load i64, ptr %9, align 8
  %70 = call ptr @heap_reloptions(i8 noundef signext 116, i64 noundef %69, i1 noundef zeroext true)
  %71 = getelementptr inbounds nuw %struct.ObjectAddress, ptr %3, i32 0, i32 1
  %72 = load i32, ptr %71, align 4
  %73 = load i64, ptr %9, align 8
  call void @NewRelationCreateToastTable(i32 noundef %72, i64 noundef %73)
  %74 = load i8, ptr %7, align 1, !range !4, !noundef !5
  %75 = trunc i8 %74 to i1
  br i1 %75, label %76, label %84

76:                                               ; preds = %2
  call void @llvm.lifetime.start.p0(i64 8, ptr %13) #7
  %77 = load ptr, ptr %5, align 8
  %78 = getelementptr inbounds nuw %struct.IntoClause, ptr %77, i32 0, i32 7
  %79 = load ptr, ptr %78, align 8
  %80 = call ptr @copyObjectImpl(ptr noundef %79)
  store ptr %80, ptr %13, align 8
  %81 = getelementptr inbounds nuw %struct.ObjectAddress, ptr %3, i32 0, i32 1
  %82 = load i32, ptr %81, align 4
  %83 = load ptr, ptr %13, align 8
  call void @StoreViewQuery(i32 noundef %82, ptr noundef %83, i1 noundef zeroext false)
  call void @CommandCounterIncrement()
  call void @llvm.lifetime.end.p0(i64 8, ptr %13) #7
  br label %84

84:                                               ; preds = %76, %2
  call void @llvm.lifetime.end.p0(i64 16, ptr %10) #7
  call void @llvm.lifetime.end.p0(i64 8, ptr %9) #7
  call void @llvm.lifetime.end.p0(i64 1, ptr %8) #7
  call void @llvm.lifetime.end.p0(i64 1, ptr %7) #7
  call void @llvm.lifetime.end.p0(i64 8, ptr %6) #7
  call void @llvm.memcpy.p0.p0.i64(ptr align 8 %14, ptr align 4 %3, i64 12, i1 false)
  %85 = load { i64, i32 }, ptr %14, align 8
  ret { i64, i32 } %85
}