; Function Attrs: nounwind uwtable
define internal fastcc { i64, i32 } @create_ctas_internal(ptr noundef %0, ptr noundef readonly captures(none) %1) unnamed_addr #0 {
  %3 = alloca [2 x ptr], align 16
  %4 = tail call noundef ptr @palloc0(i64 noundef 112) #8
  store i32 159, ptr %4, align 4
  call void @llvm.lifetime.start.p0(i64 16, ptr nonnull %3) #8
  call void @llvm.memcpy.p0.p0.i64(ptr noundef nonnull align 16 dereferenceable(16) %3, ptr noundef nonnull align 16 dereferenceable(16) @__const.create_ctas_internal.validnsps, i64 16, i1 false)
  %5 = getelementptr inbounds nuw i8, ptr %1, i64 56
  %6 = load ptr, ptr %5, align 8
  %.not = icmp eq ptr %6, null
  %7 = select i1 %.not, i8 114, i8 109
  %8 = getelementptr inbounds nuw i8, ptr %1, i64 8
  %9 = load ptr, ptr %8, align 8
  %10 = getelementptr inbounds nuw i8, ptr %4, i64 8
  store ptr %9, ptr %10, align 8
  %11 = getelementptr inbounds nuw i8, ptr %4, i64 16
  store ptr %0, ptr %11, align 8
  %12 = getelementptr inbounds nuw i8, ptr %4, i64 24
  store ptr null, ptr %12, align 8
  %13 = getelementptr inbounds nuw i8, ptr %4, i64 48
  %14 = getelementptr inbounds nuw i8, ptr %1, i64 32
  tail call void @llvm.memset.p0.i64(ptr noundef nonnull align 8 dereferenceable(16) %13, i8 0, i64 16, i1 false)
  %15 = load ptr, ptr %14, align 8
  %16 = getelementptr inbounds nuw i8, ptr %4, i64 72
  store ptr %15, ptr %16, align 8
  %17 = getelementptr inbounds nuw i8, ptr %1, i64 40
  %18 = load i32, ptr %17, align 8
  %19 = getelementptr inbounds nuw i8, ptr %4, i64 80
  store i32 %18, ptr %19, align 8
  %20 = getelementptr inbounds nuw i8, ptr %1, i64 48
  %21 = load ptr, ptr %20, align 8
  %22 = getelementptr inbounds nuw i8, ptr %4, i64 88
  store ptr %21, ptr %22, align 8
  %23 = getelementptr inbounds nuw i8, ptr %4, i64 104
  store i8 0, ptr %23, align 8
  %24 = getelementptr inbounds nuw i8, ptr %1, i64 24
  %25 = load ptr, ptr %24, align 8
  %26 = getelementptr inbounds nuw i8, ptr %4, i64 96
  store ptr %25, ptr %26, align 8
  %27 = tail call { i64, i32 } @DefineRelation(ptr noundef nonnull %4, i8 noundef signext %7, i32 noundef 0, ptr noundef null, ptr noundef null) #8
  %.fca.0.extract = extractvalue { i64, i32 } %27, 0
  %.sroa.229.0.extract.shift = lshr i64 %.fca.0.extract, 32
  %.sroa.229.0.extract.trunc = trunc nuw i64 %.sroa.229.0.extract.shift to i32
  tail call void @CommandCounterIncrement() #8
  %28 = load ptr, ptr %16, align 8
  %29 = call i64 @transformRelOptions(i64 noundef 0, ptr noundef %28, ptr noundef nonnull @.str.7, ptr noundef nonnull %3, i1 noundef zeroext true, i1 noundef zeroext false) #8
  %30 = call ptr @heap_reloptions(i8 noundef signext 116, i64 noundef %29, i1 noundef zeroext true) #8
  call void @NewRelationCreateToastTable(i32 noundef %.sroa.229.0.extract.trunc, i64 noundef %29) #8
  br i1 %.not, label %34, label %31

31:                                               ; preds = %2
  %32 = load ptr, ptr %5, align 8
  %33 = call ptr @copyObjectImpl(ptr noundef %32) #8
  call void @StoreViewQuery(i32 noundef %.sroa.229.0.extract.trunc, ptr noundef %33, i1 noundef zeroext false) #8
  call void @CommandCounterIncrement() #8
  br label %34

34:                                               ; preds = %31, %2
  call void @llvm.lifetime.end.p0(i64 16, ptr nonnull %3) #8
  ret { i64, i32 } %27
}